target datalayout = "e-m:e-p270:32:32-p271:32:32-p272:64:64-i64:64-i128:128-f80:128-n8:16:32:64-S128"
target triple = "x86_64-pc-linux-gnu"

%"class.LIEF::ChecksumStream" = type <{ i32, i32, i64, i32, [4 x i8] }>

; Function Attrs: mustprogress nounwind uwtable
define linkonce_odr hidden noundef nonnull align 8 dereferenceable(20) ptr @_ZN4LIEF14ChecksumStream14clear_leftoverEv(ptr noundef nonnull align 8 dereferenceable(20) %0) #0 comdat align 2 {
  %2 = alloca ptr, align 8
  store ptr %0, ptr %2, align 8, !tbaa !3
  %3 = load ptr, ptr %2, align 8
  %4 = getelementptr inbounds nuw %"class.LIEF::ChecksumStream", ptr %3, i32 0, i32 3
  store i32 0, ptr %4, align 8, !tbaa !27
  ret ptr %3
}

; Function Attrs: mustprogress nounwind uwtable
define linkonce_odr hidden noundef zeroext i8 @_ZNK4LIEF14ChecksumStream8leftoverEv(ptr noundef nonnull align 8 dereferenceable(20) %0) #0 comdat align 2 {
  %2 = alloca ptr, align 8
  store ptr %0, ptr %2, align 8, !tbaa !3
  %3 = load ptr, ptr %2, align 8
  %4 = getelementptr inbounds nuw %"class.LIEF::ChecksumStream", ptr %3, i32 0, i32 3
  %5 = load i32, ptr %4, align 8, !tbaa !27
  %6 = and i32 %5, 255
  %7 = trunc i32 %6 to i8
  ret i8 %7
}

; Function Attrs: mustprogress nounwind uwtable
define linkonce_odr hidden noundef zeroext i1 @_ZNK4LIEF14ChecksumStream12has_leftoverEv(ptr noundef nonnull align 8 dereferenceable(20) %0) #0 comdat align 2 {
  %2 = alloca ptr, align 8
  store ptr %0, ptr %2, align 8, !tbaa !3
  %3 = load ptr, ptr %2, align 8
  %4 = getelementptr inbounds nuw %"class.LIEF::ChecksumStream", ptr %3, i32 0, i32 3
  %5 = load i32, ptr %4, align 8, !tbaa !27
  %6 = lshr i32 %5, 30
  %7 = and i32 %6, 1
  %8 = icmp ne i32 %7, 0
  ret i1 %8
}

; Function Attrs: mustprogress nounwind uwtable
define hidden noundef i32 @_ZN4LIEF14ChecksumStream8finalizeEv(ptr noundef nonnull align 8 dereferenceable(20) %0) #0 align 2 {
  %2 = alloca ptr, align 8
  %3 = alloca i8, align 1
  %4 = alloca i16, align 2
  %5 = alloca i32, align 4
  %6 = alloca i32, align 4
  %7 = alloca i32, align 4
  store ptr %0, ptr %2, align 8, !tbaa !3
  %8 = load ptr, ptr %2, align 8
  %9 = call noundef zeroext i1 @_ZNK4LIEF14ChecksumStream12has_leftoverEv(ptr noundef nonnull align 8 dereferenceable(20) %8)
  br i1 %9, label %10, label %26

10:                                               ; preds = %1
  call void @llvm.lifetime.start.p0(i64 1, ptr %3) #11
  %11 = call noundef zeroext i8 @_ZNK4LIEF14ChecksumStream8leftoverEv(ptr noundef nonnull align 8 dereferenceable(20) %8)
  store i8 %11, ptr %3, align 1, !tbaa !20
  %12 = call noundef nonnull align 8 dereferenceable(20) ptr @_ZN4LIEF14ChecksumStream14clear_leftoverEv(ptr noundef nonnull align 8 dereferenceable(20) %8)
  %13 = load i8, ptr %3, align 1, !tbaa !20
  %14 = zext i8 %13 to i32
  %15 = getelementptr inbounds nuw %"class.LIEF::ChecksumStream", ptr %8, i32 0, i32 1
  %16 = load i32, ptr %15, align 4, !tbaa !21
  %17 = add i32 %16, %14
  store i32 %17, ptr %15, align 4, !tbaa !21
  %18 = getelementptr inbounds nuw %"class.LIEF::ChecksumStream", ptr %8, i32 0, i32 1
  %19 = load i32, ptr %18, align 4, !tbaa !21
  %20 = lshr i32 %19, 16
  %21 = getelementptr inbounds nuw %"class.LIEF::ChecksumStream", ptr %8, i32 0, i32 1
  %22 = load i32, ptr %21, align 4, !tbaa !21
  %23 = and i32 %22, 65535
  %24 = add i32 %20, %23
  %25 = getelementptr inbounds nuw %"class.LIEF::ChecksumStream", ptr %8, i32 0, i32 1
  store i32 %24, ptr %25, align 4, !tbaa !21
  call void @llvm.lifetime.end.p0(i64 1, ptr %3) #11
  br label %26

26:                                               ; preds = %10, %1
  call void @llvm.lifetime.start.p0(i64 2, ptr %4) #11
  %27 = getelementptr inbounds nuw %"class.LIEF::ChecksumStream", ptr %8, i32 0, i32 1
  %28 = load i32, ptr %27, align 4, !tbaa !21
  %29 = lshr i32 %28, 16
  %30 = getelementptr inbounds nuw %"class.LIEF::ChecksumStream", ptr %8, i32 0, i32 1
  %31 = load i32, ptr %30, align 4, !tbaa !21
  %32 = add i32 %29, %31
  %33 = and i32 %32, 65535
  %34 = trunc i32 %33 to i16
  store i16 %34, ptr %4, align 2, !tbaa !18
  call void @llvm.lifetime.start.p0(i64 4, ptr %5) #11
  %35 = getelementptr inbounds nuw %"class.LIEF::ChecksumStream", ptr %8, i32 0, i32 0
  %36 = load i32, ptr %35, align 8, !tbaa !42
  store i32 %36, ptr %5, align 4, !tbaa !43
  call void @llvm.lifetime.start.p0(i64 4, ptr %6) #11
  %37 = load i32, ptr %5, align 4, !tbaa !43
  %38 = and i32 %37, 65535
  store i32 %38, ptr %6, align 4, !tbaa !43
  call void @llvm.lifetime.start.p0(i64 4, ptr %7) #11
  %39 = load i32, ptr %5, align 4, !tbaa !43
  %40 = lshr i32 %39, 16
  store i32 %40, ptr %7, align 4, !tbaa !43
  %41 = load i16, ptr %4, align 2, !tbaa !18
  %42 = zext i16 %41 to i32
  %43 = load i32, ptr %6, align 4, !tbaa !43
  %44 = icmp ult i32 %42, %43
  %45 = zext i1 %44 to i32
  %46 = load i16, ptr %4, align 2, !tbaa !18
  %47 = zext i16 %46 to i32
  %48 = sub nsw i32 %47, %45
  %49 = trunc i32 %48 to i16
  store i16 %49, ptr %4, align 2, !tbaa !18
  %50 = load i32, ptr %6, align 4, !tbaa !43
  %51 = load i16, ptr %4, align 2, !tbaa !18
  %52 = zext i16 %51 to i32
  %53 = sub i32 %52, %50
  %54 = trunc i32 %53 to i16
  store i16 %54, ptr %4, align 2, !tbaa !18
  %55 = load i16, ptr %4, align 2, !tbaa !18
  %56 = zext i16 %55 to i32
  %57 = load i32, ptr %7, align 4, !tbaa !43
  %58 = icmp ult i32 %56, %57
  %59 = zext i1 %58 to i32
  %60 = load i16, ptr %4, align 2, !tbaa !18
  %61 = zext i16 %60 to i32
  %62 = sub nsw i32 %61, %59
  %63 = trunc i32 %62 to i16
  store i16 %63, ptr %4, align 2, !tbaa !18
  %64 = load i32, ptr %7, align 4, !tbaa !43
  %65 = load i16, ptr %4, align 2, !tbaa !18
  %66 = zext i16 %65 to i32
  %67 = sub i32 %66, %64
  %68 = trunc i32 %67 to i16
  store i16 %68, ptr %4, align 2, !tbaa !18
  %69 = load i16, ptr %4, align 2, !tbaa !18
  %70 = zext i16 %69 to i32
  %71 = zext i32 %70 to i64
  %72 = getelementptr inbounds nuw %"class.LIEF::ChecksumStream", ptr %8, i32 0, i32 2
  %73 = load i64, ptr %72, align 8, !tbaa !26
  %74 = add i64 %71, %73
  %75 = trunc i64 %74 to i32
  call void @llvm.lifetime.end.p0(i64 4, ptr %7) #11
  call void @llvm.lifetime.end.p0(i64 4, ptr %6) #11
  call void @llvm.lifetime.end.p0(i64 4, ptr %5) #11
  call void @llvm.lifetime.end.p0(i64 2, ptr %4) #11
  ret i32 %75
}