; Function Attrs: mustprogress nofree norecurse nosync nounwind willreturn memory(argmem: readwrite) uwtable
define hidden noundef i32 @_ZN4LIEF14ChecksumStream8finalizeEv(ptr noundef nonnull align 8 captures(none) dereferenceable(20) %0) local_unnamed_addr #2 align 2 {
  %2 = getelementptr inbounds nuw i8, ptr %0, i64 16
  %3 = load i32, ptr %2, align 8, !tbaa !19
  %4 = and i32 %3, 1073741824
  %.not = icmp eq i32 %4, 0
  br i1 %.not, label %._crit_edge, label %5

._crit_edge:                                      ; preds = %1
  %.phi.trans.insert = getelementptr inbounds nuw i8, ptr %0, i64 4
  %.pre = load i32, ptr %.phi.trans.insert, align 4, !tbaa !25
  br label %13

5:                                                ; preds = %1
  store i32 0, ptr %2, align 8, !tbaa !19
  %6 = and i32 %3, 255
  %7 = getelementptr inbounds nuw i8, ptr %0, i64 4
  %8 = load i32, ptr %7, align 4, !tbaa !25
  %9 = add i32 %8, %6
  %10 = lshr i32 %9, 16
  %11 = and i32 %9, 65535
  %12 = add nuw nsw i32 %10, %11
  store i32 %12, ptr %7, align 4, !tbaa !25
  br label %13

13:                                               ; preds = %._crit_edge, %5
  %14 = phi i32 [ %.pre, %._crit_edge ], [ %12, %5 ]
  %15 = lshr i32 %14, 16
  %16 = add i32 %15, %14
  %17 = load i32, ptr %0, align 8, !tbaa !29
  %18 = and i32 %17, 65535
  %19 = lshr i32 %17, 16
  %20 = and i32 %16, 65535
  %21 = icmp samesign ult i32 %20, %18
  %.neg = sext i1 %21 to i32
  %22 = sub i32 %16, %17
  %23 = add i32 %22, %.neg
  %24 = and i32 %23, 65535
  %25 = icmp samesign ult i32 %24, %19
  %.neg14 = sext i1 %25 to i32
  %26 = sub i32 %23, %19
  %27 = add i32 %26, %.neg14
  %28 = and i32 %27, 65535
  %29 = getelementptr inbounds nuw i8, ptr %0, i64 8
  %30 = load i64, ptr %29, align 8, !tbaa !28
  %31 = trunc i64 %30 to i32
  %32 = add i32 %28, %31
  ret i32 %32
}